(lp0
(lp1
F-7.7924614231009235
aF0.0
aF0.0
aF-0.966287138149554
aF-6.826174284951367
aF-4.314245253037373
aF-0.2523162123798846
aF-3.225899957683665
aF-0.9888745686778807
aF-1.9615872791007753
aF-0.2754381099050085
aF-0.2801105611526015
aF-0.7436835266638264
aF-1.0222542453537893
aF-0.11332156218788235
aF-5.633091527742822
aF0.0
aF-1.578663824496922
aF-0.5418774271185621
aF-4.782584710667059
aF-0.889335460818379
aF0.0
aF0.0
aF0.0
aF0.0936684095939962
aF-0.07181558970806122
aF-0.1095157978736147
aF0.0
aF-0.32133521265036713
aF-0.40277347524932466
aF-5.856042719917712
aF-1.1763029305944035
aF0.0
aF0.0
aF0.0
aF0.0
aF-0.033458327985215496
aF0.0
aF0.0
aF0.0
aF0.0
aF0.0
aF0.0
aF0.0
aF0.0
aF0.0
aa(lp2
F-29.060865430669004
aF0.0
aF0.0
aF-1.5742452848551929
aF-27.486620145813813
aF-26.740525897371878
aF-0.20895705151304633
aF-2.1113824817840827
aF-0.4574927384157685
aF-1.4263239965548082
aF-0.2275657468135071
aF-29.060865430669004
aF0.0
aF0.0
aF0.0
aF0.0
aF0.0
aF-27.585857611976213
aF-1.387660144556951
aF0.01919495672911089
aF0.018576037836130134
aF0.0
aF-0.1251186687010866
aF0.0
aF0.0
aF0.0
aF0.0
aF0.0
aF0.0
aF-0.07666666666666669
aF-0.03947402138193051
aF0.0
aF0.0
aF0.0
aF0.0
aF0.0
aF0.0
aF0.0
aF0.0
aF0.0
aF0.0
aF-0.07666666666666669
aF0.0
aF0.0
aF0.0
aF0.0
aa(lp3
F-5.136182689563832
aF0.0
aF0.0
aF8.94752917608999
aF-14.083711865653825
aF-1.4603258880550647
aF0.749323558154293
aF-4.425180359663068
aF-6.578357740600355
aF2.5816989461601074
aF-0.4353685440219049
aF-5.136182689563832
aF0.0
aF0.0
aF0.0
aF0.0
aF0.0
aF-3.8576074284984454
aF-1.5333266802380747
aF1.5032978309859004
aF-4.302244051012878
aF-0.12646674205283762
aF3.180164381252503
aF0.23781878886626986
aF0.0
aF-0.011032142995412782
aF-0.08498744162171383
aF-0.4216647660206765
aF-0.014317712430393167
aF0.3360012158989483
aF-0.11985176635180572
aF0.21263594457559742
aF-0.07364612076088793
aF0.0
aF0.0
aF0.0
aF0.0
aF0.0
aF0.0
aF0.0
aF0.0
aF-0.05834563271170981
aF0.0
aF0.0
aF0.0
aF0.0
aa(lp4
F-6.145137004686093
aF0.0
aF0.0
aF-6.435647481187912
aF0.290510476501817
aF-2.667311268165357
aF5.803257196392476
aF-9.28108293291321
aF-4.059803429858758
aF-0.7630338302582785
aF-4.458245672796173
aF-11.237810816264863
aF6.640927355221584
aF-0.6162793031481677
aF4.4937510831148195
aF-2.524957012262221
aF-2.9007683113472527
aF-9.530033561686382
aF-0.9056002598569146
aF-0.6237902516198134
aF5.669716029964144
aF-1.518325088267773
aF0.7628961267806298
aF0.3519838361648422
aF0.6639028981957132
aF0.47234444566955297
aF-7.282954441039966
aF-1.1195358272764344
aF-0.5765364704597653
aF4.932363218000732
aF4.820285372034845
aF8.15289482343842
aF0.16831030943860723
aF0.4539729803027924
aF0.27227014306404834
aF-0.025810725563011915
aF-0.02851142407469261
aF0.0
aF0.02747781883141738
aF-0.03144477555907086
aF0.39325786825498443
aF-0.4703627003160089
aF0.0
aF0.0
aF0.0
aF0.0
aa(lp5
F-10.171144694920699
aF0.0
aF0.0
aF-0.40779454837141177
aF-9.763350146549287
aF-0.8421705991722078
aF-11.390771959079364
aF2.061797863330873
aF3.4083463383059516
aF-4.102108036501613
aF2.755559561526534
aF-12.849963843836688
aF-0.25071701335137625
aF0.3252204941640797
aF0.09733249506089497
aF-4.145411067818078
aF6.652394240860469
aF-12.02560728707631
aF0.5249511602581749
aF0.29703344947270915
aF-2.926214766209478
aF7.7371512643414295
aF-3.778458515707225
aF-0.009094637626791642
aF0.0919116587497886
aF0.47194159637695104
aF2.623872147362779
aF-0.011165353785632466
aF-0.02643721617524591
aF-0.7205439111239599
aF0.018870263846241034
aF-4.3009669196805635
aF-0.04020595980596384
aF0.014282606103300262
aF0.0
aF0.02574188516238145
aF0.04154435173241652
aF0.0
aF0.0
aF0.0
aF-0.022360674154477136
aF-0.5191764475068126
aF0.0
aF0.0
aF0.0
aF0.0
aa.